; Function Attrs: nounwind uwtable
define ptr @l_Lean_LeanOptions_fromOptions_x3f(ptr noundef %0) local_unnamed_addr #0 {
  %2 = ptrtoint ptr %0 to i64
  %3 = and i64 %2, 1
  %.not = icmp eq i64 %3, 0
  br i1 %.not, label %4, label %lean_inc.exit19

4:                                                ; preds = %1
  %.val.i = load i32, ptr %0, align 4, !tbaa !4
  %5 = icmp sgt i32 %.val.i, 0
  br i1 %5, label %6, label %8, !prof !12

6:                                                ; preds = %4
  %7 = add nuw i32 %.val.i, 1
  store i32 %7, ptr %0, align 4, !tbaa !4
  br label %11

8:                                                ; preds = %4
  %.not.i22 = icmp eq i32 %.val.i, 0
  br i1 %.not.i22, label %11, label %9

9:                                                ; preds = %8
  tail call void @lean_inc_ref_cold(ptr noundef nonnull %0) #5
  br label %11

lean_inc.exit19:                                  ; preds = %1
  %10 = tail call ptr @l_List_forIn_x27_loop___at_Lean_LeanOptions_fromOptions_x3f___spec__3(ptr nonnull poison, ptr poison, ptr poison, ptr noundef %0, ptr noundef nonnull inttoptr (i64 1 to ptr), ptr nonnull poison)
  br label %lean_dec.exit18

11:                                               ; preds = %9, %8, %6
  %12 = tail call ptr @l_List_forIn_x27_loop___at_Lean_LeanOptions_fromOptions_x3f___spec__3(ptr nonnull poison, ptr nonnull poison, ptr nonnull poison, ptr noundef nonnull %0, ptr noundef nonnull inttoptr (i64 1 to ptr), ptr nonnull poison)
  %13 = load i32, ptr %0, align 4, !tbaa !4
  %14 = icmp sgt i32 %13, 1
  br i1 %14, label %15, label %17, !prof !12

15:                                               ; preds = %11
  %16 = add nsw i32 %13, -1
  store i32 %16, ptr %0, align 4, !tbaa !4
  br label %lean_dec.exit18

17:                                               ; preds = %11
  %.not.i = icmp eq i32 %13, 0
  br i1 %.not.i, label %lean_dec.exit18, label %18

18:                                               ; preds = %17
  tail call void @lean_dec_ref_cold(ptr noundef nonnull %0) #5
  br label %lean_dec.exit18

lean_dec.exit18:                                  ; preds = %18, %17, %15, %lean_inc.exit19
  %19 = phi ptr [ %10, %lean_inc.exit19 ], [ %12, %15 ], [ %12, %17 ], [ %12, %18 ]
  %20 = ptrtoint ptr %19 to i64
  %21 = and i64 %20, 1
  %.not.i23 = icmp eq i64 %21, 0
  br i1 %.not.i23, label %25, label %22

22:                                               ; preds = %lean_dec.exit18
  %23 = lshr i64 %20, 1
  %24 = trunc i64 %23 to i32
  br label %lean_obj_tag.exit

25:                                               ; preds = %lean_dec.exit18
  %26 = getelementptr i8, ptr %19, i64 4
  %.val.i24 = load i32, ptr %26, align 4
  %27 = lshr i32 %.val.i24, 24
  br label %lean_obj_tag.exit

lean_obj_tag.exit:                                ; preds = %22, %25
  %.0.i = phi i32 [ %24, %22 ], [ %27, %25 ]
  %28 = icmp eq i32 %.0.i, 0
  br i1 %28, label %54, label %29

29:                                               ; preds = %lean_obj_tag.exit
  %.val = load i32, ptr %19, align 4, !tbaa !4
  %30 = icmp eq i32 %.val, 1
  br i1 %30, label %54, label %31

31:                                               ; preds = %29
  %32 = getelementptr inbounds nuw i8, ptr %19, i64 8
  %33 = load ptr, ptr %32, align 8, !tbaa !9
  %34 = ptrtoint ptr %33 to i64
  %35 = and i64 %34, 1
  %.not28 = icmp eq i64 %35, 0
  br i1 %.not28, label %36, label %lean_inc.exit

36:                                               ; preds = %31
  %.val.i25 = load i32, ptr %33, align 4, !tbaa !4
  %37 = icmp sgt i32 %.val.i25, 0
  br i1 %37, label %38, label %40, !prof !12

38:                                               ; preds = %36
  %39 = add nuw i32 %.val.i25, 1
  store i32 %39, ptr %33, align 4, !tbaa !4
  br label %lean_inc.exit

40:                                               ; preds = %36
  %.not.i26 = icmp eq i32 %.val.i25, 0
  br i1 %.not.i26, label %lean_inc.exit, label %41

41:                                               ; preds = %40
  tail call void @lean_inc_ref_cold(ptr noundef nonnull %33) #5
  br label %lean_inc.exit

lean_inc.exit:                                    ; preds = %41, %40, %38, %31
  br i1 %.not.i23, label %42, label %lean_dec.exit

42:                                               ; preds = %lean_inc.exit
  %43 = load i32, ptr %19, align 4, !tbaa !4
  %44 = icmp sgt i32 %43, 1
  br i1 %44, label %45, label %47, !prof !12

45:                                               ; preds = %42
  %46 = add nsw i32 %43, -1
  store i32 %46, ptr %19, align 4, !tbaa !4
  br label %lean_dec.exit

47:                                               ; preds = %42
  %.not.i20 = icmp eq i32 %43, 0
  br i1 %.not.i20, label %lean_dec.exit, label %48

48:                                               ; preds = %47
  tail call void @lean_dec_ref_cold(ptr noundef nonnull %19) #5
  br label %lean_dec.exit

lean_dec.exit:                                    ; preds = %48, %47, %45, %lean_inc.exit
  tail call void @lean_inc_heartbeat() #5
  %49 = tail call noalias ptr @mi_malloc_small(i64 noundef 16) #5
  %50 = icmp eq ptr %49, null
  br i1 %50, label %51, label %lean_alloc_ctor.exit

51:                                               ; preds = %lean_dec.exit
  tail call void @lean_internal_panic_out_of_memory() #6
  unreachable

lean_alloc_ctor.exit:                             ; preds = %lean_dec.exit
  %52 = getelementptr inbounds nuw i8, ptr %49, i64 4
  store i32 1, ptr %49, align 4, !tbaa !4
  store i32 16842768, ptr %52, align 4
  %53 = getelementptr inbounds nuw i8, ptr %49, i64 8
  store ptr %33, ptr %53, align 8, !tbaa !9
  br label %54

54:                                               ; preds = %lean_obj_tag.exit, %lean_alloc_ctor.exit, %29
  %.0 = phi ptr [ %49, %lean_alloc_ctor.exit ], [ %19, %29 ], [ inttoptr (i64 1 to ptr), %lean_obj_tag.exit ]
  ret ptr %.0
}